ccollections
OrderedDict
p1
((lp2
(lp3
(I80
csage.rings.integer
make_integer
p4
(S'g00'
tRp5
I5632
Ntp6
ag1
((lp7
(lp8
S'd'
aS'80'
p9
aa(lp10
S'n'
aS'16384'
p11
aa(lp12
S'k'
aS'5632'
p13
aa(lp14
S'gr'
p15
aS'0.9999989957766260153309558581194'
p16
aa(lp17
S'ngr'
p18
aS'0.000001004223373984669044141880602432'
p19
aa(lp20
S'pf'
p21
aS'0.000005027628383701818246435074841919'
p22
aa(lp23
S'ngr_pf'
p24
aS'0.000001003877054874251698777439995547'
p25
aa(lp26
S'gr_pf'
p27
aS'0.000004023504610498453809702517714279'
p28
aa(lp29
S'rho'
p30
aS'0.8003279124351068442083349643945'
p31
aa(lp32
S'eta'
p33
aS'0.0003448626265719965587513772388183'
p34
aa(lp35
S'beta'
p36
aS'None'
p37
aa(lp38
S'prec'
p39
aS'106'
p40
aatRp41
aatRp42
.