ccollections
OrderedDict
p1
((lp2
(lp3
(csage.rings.integer
make_integer
p4
(S'40'
tRp5
I128
I44
Ntp6
ag1
((lp7
(lp8
S'd'
aS'128'
p9
aa(lp10
S'n'
aS'128'
p11
aa(lp12
S'k'
aS'44'
p13
aa(lp14
S'gr'
p15
aS'0.9999999991946315013392600187134'
p16
aa(lp17
S'pf'
p18
aS'0.001017074797364237546625996530384'
p19
aa(lp20
S'ngr_pf'
p21
aS'4.867546050161790039661185094634e-10'
p22
aa(lp23
S'gr_pf'
p24
aS'0.001017074310609634686706722964609'
p25
aa(lp26
S'rho'
p27
aS'0.9999995214171010061306799057037'
p28
aa(lp29
S'eta'
p30
aS'0.3956125601813195600178007905931'
p31
aa(lp32
S'beta'
p33
aS'None'
p34
aa(lp35
S'prec'
p36
aS'106'
p37
aatRp38
aa(lp39
(g5
I128
I44
F0.73303828583761832
tp40
ag1
((lp41
(lp42
S'd'
aS'128'
p43
aa(lp44
S'n'
aS'128'
p45
aa(lp46
S'k'
aS'44'
p47
aa(lp48
g15
aS'0.4728709807913911633450777104498'
p49
aa(lp50
g18
aS'0.6761159781317386064489657643561'
p51
aa(lp52
g21
aS'0.4003265582708682987260716762097'
p53
aa(lp54
g24
aS'0.01972954594622072857274442655773'
p55
aa(lp56
g27
aS'0.4079025326733718996676341649777'
p57
aa(lp58
g30
aS'0.2405529885797447604138926217125'
p59
aa(lp60
g33
aS'0.7330382858376183197179898343165'
p61
aa(lp62
g36
aS'106'
p63
aatRp64
aa(lp65
(g5
I128
I44
F1.0471975511965976
tp66
ag1
((lp67
(lp68
S'd'
aS'128'
p69
aa(lp70
S'n'
aS'128'
p71
aa(lp72
S'k'
aS'44'
p73
aa(lp74
g15
aS'0.9998940852326156686921479426015'
p75
aa(lp76
g18
aS'0.05866563555968647550703384416005'
p77
aa(lp78
g21
aS'0.0000651817113345129493473231328791'
p79
aa(lp80
g24
aS'0.05860045384835185492527065835329'
p81
aa(lp82
g27
aS'0.998888928574408828965686214604'
p83
aa(lp84
g30
aS'0.3845833499497849685153717577199'
p85
aa(lp86
g33
aS'1.047197551196597631317786181171'
p87
aa(lp88
g36
aS'106'
p89
aatRp90
aa(lp91
(g5
I128
I44
F1.3613568165555769
tp92
ag1
((lp93
(lp94
S'd'
aS'128'
p95
aa(lp96
S'n'
aS'128'
p97
aa(lp98
S'k'
aS'44'
p99
aa(lp100
g15
aS'0.9999999888902998174724326614528'
p101
aa(lp102
g18
aS'0.002717388379211665432111651524505'
p103
aa(lp104
g21
aS'0.000000006732611223103304405664579790283'
p105
aa(lp106
g24
aS'0.002717381646600441986176711367266'
p107
aa(lp108
g27
aS'0.999997522396402881326456986709'
p109
aa(lp110
g30
aS'0.3939880363565699430431809017611'
p111
aa(lp112
g33
aS'1.361356816555576942917582528025'
p113
aa(lp114
g36
aS'106'
p115
aatRp116
aatRp117
.