ccollections
OrderedDict
p1
((lp2
(lp3
(I128
csage.rings.integer
make_integer
p4
(S'7vv'
tRp5
I2815
Ntp6
ag1
((lp7
(lp8
S'd'
aS'128'
p9
aa(lp10
S'n'
aS'8191'
p11
aa(lp12
S'k'
aS'2815'
p13
aa(lp14
S'gr'
p15
aS'0.9999999991946315013392600187134'
p16
aa(lp17
S'ngr'
p18
aS'8.053684986607399812866406822412e-10'
p19
aa(lp20
S'pf'
p21
aS'0.00000001584369691547517449941084960739'
p22
aa(lp23
S'ngr_pf'
p24
aS'7.993511600607769413431835021118e-10'
p25
aa(lp26
S'gr_pf'
p27
aS'0.00000001504434610332789334132113704678'
p28
aa(lp29
S'rho'
p30
aS'0.9495476867346522774199885954536'
p31
aa(lp32
S'eta'
p33
aS'0.007471534595616003737170476418261'
p34
aa(lp35
S'beta'
p36
aS'None'
p37
aa(lp38
S'prec'
p39
aS'106'
p40
aatRp41
aatRp42
.