ccollections
OrderedDict
p1
((lp2
(lp3
(I128
csage.rings.integer
make_integer
p4
(S'vvv'
tRp5
I11263
Ntp6
ag1
((lp7
(lp8
S'd'
aS'128'
p9
aa(lp10
S'n'
aS'32767'
p11
aa(lp12
S'k'
aS'11263'
p13
aa(lp14
S'gr'
p15
aS'0.9999999991946315013392600187134'
p16
aa(lp17
S'ngr'
p18
aS'8.053684986607399812866406822412e-10'
p19
aa(lp20
S'pf'
p21
aS'0.0000000100822023594128158143526073219'
p22
aa(lp23
S'ngr_pf'
p24
aS'8.053652223761796047931583593576e-10'
p25
aa(lp26
S'gr_pf'
p27
aS'0.000000009236389488072305036865087214954'
p28
aa(lp29
S'rho'
p30
aS'0.9201201093108109552606626541403'
p31
aa(lp32
S'eta'
p33
aS'0.000004068056505593003592927178888916'
p34
aa(lp35
S'beta'
p36
aS'None'
p37
aa(lp38
S'prec'
p39
aS'106'
p40
aatRp41
aatRp42
.