ccollections
OrderedDict
p1
((lp2
(lp3
(csage.rings.integer
make_integer
p4
(S'40'
tRp5
g4
(S'80'
tRp6
I88
Ntp7
ag1
((lp8
(lp9
S'd'
aS'128'
p10
aa(lp11
S'n'
aS'256'
p12
aa(lp13
S'k'
aS'88'
p14
aa(lp15
S'gr'
p16
aS'0.9999999991946315013392600187134'
p17
aa(lp18
S'ngr'
p19
aS'8.053684986607399812866406822412e-10'
p20
aa(lp21
S'pf'
p22
aS'0.00007181293075661485760140674237969'
p23
aa(lp24
S'ngr_pf'
p25
aS'5.36840034981896595916576041929e-10'
p26
aa(lp27
S'gr_pf'
p28
aS'0.00007181239391657995554468571364806'
p29
aa(lp30
S'rho'
p31
aS'0.9999925244655896118402005554932'
p32
aa(lp33
S'eta'
p34
aS'0.3334231027478522144777446890911'
p35
aa(lp36
S'beta'
p37
aS'None'
p38
aa(lp39
S'prec'
p40
aS'106'
p41
aatRp42
aa(lp43
(g5
g6
I88
F0.73303828583761832
tp44
ag1
((lp45
(lp46
S'd'
aS'128'
p47
aa(lp48
S'n'
aS'256'
p49
aa(lp50
S'k'
aS'88'
p51
aa(lp52
g16
aS'0.4728709807913911633450777104498'
p53
aa(lp54
g19
aS'0.5271290192086088366549222895502'
p55
aa(lp56
g22
aS'0.7594557183927319835517233402094'
p57
aa(lp58
g25
aS'0.4443064660896001592848191693451'
p59
aa(lp60
g28
aS'0.02074799567763429833957231982781'
p61
aa(lp62
g31
aS'0.4149672517709069541430570976762'
p63
aa(lp64
g34
aS'0.1571200789578083169114717098467'
p65
aa(lp66
g37
aS'0.7330382858376183197179898343165'
p67
aa(lp68
g40
aS'106'
p69
aatRp70
aa(lp71
(g5
g6
I88
F1.0471975511965976
tp72
ag1
((lp73
(lp74
S'd'
aS'128'
p75
aa(lp76
S'n'
aS'256'
p77
aa(lp78
S'k'
aS'88'
p79
aa(lp80
g16
aS'0.9998940852326156686921479426015'
p81
aa(lp82
g19
aS'0.0001059147673843313078520573984992'
p83
aa(lp84
g22
aS'0.02446326452451904296269632951451'
p85
aa(lp86
g25
aS'0.00007208298592030974464179621506265'
p87
aa(lp88
g28
aS'0.02439118153859868129514931068528'
p89
aa(lp90
g31
aS'0.9970534191849962459815752552197'
p91
aa(lp92
g34
aS'0.3194245929961465300106929741821'
p93
aa(lp94
g37
aS'1.047197551196597631317786181171'
p95
aa(lp96
g40
aS'106'
p97
aatRp98
aa(lp99
(g5
g6
I88
F1.3613568165555769
tp100
ag1
((lp101
(lp102
S'd'
aS'128'
p103
aa(lp104
S'n'
aS'256'
p105
aa(lp106
S'k'
aS'88'
p107
aa(lp108
g16
aS'0.9999999888902998174724326614528'
p109
aa(lp110
g19
aS'0.00000001110970018252756733854721545447'
p111
aa(lp112
g22
aS'0.0002888276426070144891916088817628'
p113
aa(lp114
g25
aS'0.000000007428577285537908138907186364491'
p115
aa(lp116
g28
aS'0.0002888202140297290355374415137264'
p117
aa(lp118
g31
aS'0.9999742802412591602228823205522'
p119
aa(lp120
g34
aS'0.3313431358641909912980106589971'
p121
aa(lp122
g37
aS'1.361356816555576942917582528025'
p123
aa(lp124
g40
aS'106'
p125
aatRp126
aatRp127
.