ccollections
OrderedDict
p1
((lp2
(lp3
(I128
csage.rings.integer
make_integer
p4
(S'2000'
tRp5
I22528
Ntp6
ag1
((lp7
(lp8
S'd'
aS'128'
p9
aa(lp10
S'n'
aS'65536'
p11
aa(lp12
S'k'
aS'22528'
p13
aa(lp14
S'gr'
p15
aS'0.9999999991946315013392600187134'
p16
aa(lp17
S'ngr'
p18
aS'8.053684986607399812866406822412e-10'
p19
aa(lp20
S'pf'
p21
aS'0.000000009257911639483941108023164460836'
p22
aa(lp23
S'ngr_pf'
p24
aS'8.053684981930465904716322059301e-10'
p25
aa(lp26
S'gr_pf'
p27
aS'0.000000008467314077486511456234703514047'
p28
aa(lp29
S'rho'
p30
aS'0.9130075410572896953633111534202'
p31
aa(lp32
S'eta'
p33
aS'5.807197470384590601656757626717e-10'
p34
aa(lp35
S'beta'
p36
aS'None'
p37
aa(lp38
S'prec'
p39
aS'106'
p40
aatRp41
aatRp42
.