ccollections
OrderedDict
p1
((lp2
(lp3
(I128
csage.rings.integer
make_integer
p4
(S'3vv'
tRp5
I1407
Ntp6
ag1
((lp7
(lp8
S'd'
aS'128'
p9
aa(lp10
S'n'
aS'4095'
p11
aa(lp12
S'k'
aS'1407'
p13
aa(lp14
S'gr'
p15
aS'0.9999999991946315013392600187134'
p16
aa(lp17
S'ngr'
p18
aS'8.053684986607399812866406822412e-10'
p19
aa(lp20
S'pf'
p21
aS'0.00000002802139699916946705205553750688'
p22
aa(lp23
S'ngr_pf'
p24
aS'7.759979094131104810348342572111e-10'
p25
aa(lp26
S'gr_pf'
p27
aS'0.00000002724539908975663457301181336696'
p28
aa(lp29
S'rho'
p30
aS'0.9723069513830409500875260938328'
p31
aa(lp32
S'eta'
p33
aS'0.03646851012483145020451697177169'
p34
aa(lp35
S'beta'
p36
aS'None'
p37
aa(lp38
S'prec'
p39
aS'106'
p40
aatRp41
aatRp42
.