ccollections
OrderedDict
p1
((lp2
(lp3
(I128
csage.rings.integer
make_integer
p4
(S'fvv'
tRp5
I5461
Ntp6
ag1
((lp7
(lp8
S'd'
aS'128'
p9
aa(lp10
S'n'
aS'16383'
p11
aa(lp12
S'k'
aS'5461'
p13
aa(lp14
S'gr'
p15
aS'0.9999999991946315013392600187134'
p16
aa(lp17
S'ngr'
p18
aS'8.053684986607399812866406822412e-10'
p19
aa(lp20
S'pf'
p21
aS'0.000000001162991594875464611191525405765'
p22
aa(lp23
S'ngr_pf'
p24
aS'6.296701285665265444740806217274e-10'
p25
aa(lp26
S'gr_pf'
p27
aS'5.33367940825012480024171641863e-10'
p28
aa(lp29
S'rho'
p30
aS'0.4585772319068627151958737531795'
p31
aa(lp32
S'eta'
p33
aS'0.218158979878633242158472544272'
p34
aa(lp35
S'beta'
p36
aS'None'
p37
aa(lp38
S'prec'
p39
aS'106'
p40
aatRp41
aatRp42
.