ccollections
OrderedDict
p1
((lp2
(lp3
(I144
csage.rings.integer
make_integer
p4
(S'fvv'
tRp5
I5461
Ntp6
ag1
((lp7
(lp8
S'd'
aS'144'
p9
aa(lp10
S'n'
aS'16383'
p11
aa(lp12
S'k'
aS'5461'
p13
aa(lp14
S'gr'
p15
aS'0.99999999992382278726530169175'
p16
aa(lp17
S'ngr'
p18
aS'7.617721273469830825002706971203e-11'
p19
aa(lp20
S'pf'
p21
aS'1.209977011174386177651869486577e-10'
p22
aa(lp23
S'ngr_pf'
p24
aS'5.836545551934432197252610249678e-11'
p25
aa(lp26
S'gr_pf'
p27
aS'6.264216984068799569062263107004e-11'
p28
aa(lp29
S'rho'
p30
aS'0.517631698946943996538300893711'
p31
aa(lp32
S'eta'
p33
aS'0.2338200175082124950861359582629'
p34
aa(lp35
S'beta'
p36
aS'None'
p37
aa(lp38
S'prec'
p39
aS'106'
p40
aatRp41
aatRp42
.