ccollections
OrderedDict
p1
((lp2
(lp3
(I144
csage.rings.integer
make_integer
p4
(S'2000'
tRp5
I22528
Ntp6
ag1
((lp7
(lp8
S'd'
aS'144'
p9
aa(lp10
S'n'
aS'65536'
p11
aa(lp12
S'k'
aS'22528'
p13
aa(lp14
S'gr'
p15
aS'0.99999999992382278726530169175'
p16
aa(lp17
S'ngr'
p18
aS'7.617721273469830825002706971203e-11'
p19
aa(lp20
S'pf'
p21
aS'0.000000001204177069915865030177305309879'
p22
aa(lp23
S'ngr_pf'
p24
aS'7.617721268540676943078029106873e-11'
p25
aa(lp26
S'gr_pf'
p27
aS'0.00000000112230480443347160989044292022'
p28
aa(lp29
S'rho'
p30
aS'0.9367391934387778904627638861223'
p31
aa(lp32
S'eta'
p33
aS'6.470640897680777101865185389501e-10'
p34
aa(lp35
S'beta'
p36
aS'None'
p37
aa(lp38
S'prec'
p39
aS'106'
p40
aatRp41
aatRp42
.