ccollections
OrderedDict
p1
((lp2
(lp3
(I144
csage.rings.integer
make_integer
p4
(S'7v'
tRp5
I87
Ntp6
ag1
((lp7
(lp8
S'd'
aS'144'
p9
aa(lp10
S'n'
aS'255'
p11
aa(lp12
S'k'
aS'87'
p13
aa(lp14
S'gr'
p15
aS'0.99999999992382278726530169175'
p16
aa(lp17
S'ngr'
p18
aS'7.617721273469830825002706971203e-11'
p19
aa(lp20
S'pf'
p21
aS'0.0000562300010767601850967707330925'
p22
aa(lp23
S'ngr_pf'
p24
aS'5.160346771321246519236834302732e-11'
p25
aa(lp26
S'gr_pf'
p27
aS'0.00005622994947329256432241949912706'
p28
aa(lp29
S'rho'
p30
aS'0.9999990822787351049840630131884'
p31
aa(lp32
S'eta'
p33
aS'0.3225865601970579209000816838357'
p34
aa(lp35
S'beta'
p36
aS'None'
p37
aa(lp38
S'prec'
p39
aS'106'
p40
aatRp41
aatRp42
.