ccollections
OrderedDict
p1
((lp2
(lp3
(I144
csage.rings.integer
make_integer
p4
(S'fvv'
tRp5
I5631
Ntp6
ag1
((lp7
(lp8
S'd'
aS'144'
p9
aa(lp10
S'n'
aS'16383'
p11
aa(lp12
S'k'
aS'5631'
p13
aa(lp14
S'gr'
p15
aS'0.99999999992382278726530169175'
p16
aa(lp17
S'ngr'
p18
aS'7.617721273469830825002706971203e-11'
p19
aa(lp20
S'pf'
p21
aS'0.000000001611021276875414547431746767632'
p22
aa(lp23
S'ngr_pf'
p24
aS'7.613559567192017483733748284178e-11'
p25
aa(lp26
S'gr_pf'
p27
aS'0.000000001534826380864243519685412401885'
p28
aa(lp29
S'rho'
p30
aS'0.9527407882411176962237372427244'
p31
aa(lp32
S'eta'
p33
aS'0.00054631905374475674088149191815'
p34
aa(lp35
S'beta'
p36
aS'None'
p37
aa(lp38
S'prec'
p39
aS'106'
p40
aatRp41
aatRp42
.