ccollections
OrderedDict
p1
((lp2
(lp3
(I144
csage.rings.integer
make_integer
p4
(S'vvv'
tRp5
I11263
Ntp6
ag1
((lp7
(lp8
S'd'
aS'144'
p9
aa(lp10
S'n'
aS'32767'
p11
aa(lp12
S'k'
aS'11263'
p13
aa(lp14
S'gr'
p15
aS'0.99999999992382278726530169175'
p16
aa(lp17
S'ngr'
p18
aS'7.617721273469830825002706971203e-11'
p19
aa(lp20
S'pf'
p21
aS'0.000000001332393100301264718669886622071'
p22
aa(lp23
S'ngr_pf'
p24
aS'7.61768696279468176657850640869e-11'
p25
aa(lp26
S'gr_pf'
p27
aS'0.000000001249006858528062525449302070464'
p28
aa(lp29
S'rho'
p30
aS'0.9428270308434330535055233940186'
p31
aa(lp32
S'eta'
p33
aS'0.000004504060192980793757145450689935'
p34
aa(lp35
S'beta'
p36
aS'None'
p37
aa(lp38
S'prec'
p39
aS'106'
p40
aatRp41
aatRp42
.