ccollections
OrderedDict
p1
((lp2
(lp3
(I160
csage.rings.integer
make_integer
p4
(S'fv'
tRp5
I175
Ntp6
ag1
((lp7
(lp8
S'd'
aS'160'
p9
aa(lp10
S'n'
aS'511'
p11
aa(lp12
S'k'
aS'175'
p13
aa(lp14
S'gr'
p15
aS'0.9999999999927526619477054024508'
p16
aa(lp17
S'ngr'
p18
aS'7.247338052294597549172190425293e-12'
p19
aa(lp20
S'pf'
p21
aS'0.000001126414281071920470594364398529'
p22
aa(lp23
S'ngr_pf'
p24
aS'5.357563923276784686409393433653e-12'
p25
aa(lp26
S'gr_pf'
p27
aS'0.0000011264089235079972392446609248'
p28
aa(lp29
S'rho'
p30
aS'0.9999952437002856725061596878679'
p31
aa(lp32
S'eta'
p33
aS'0.2607542404372163682525205569936'
p34
aa(lp35
S'beta'
p36
aS'None'
p37
aa(lp38
S'prec'
p39
aS'106'
p40
aatRp41
aatRp42
.