ccollections
OrderedDict
p1
((lp2
(lp3
(I160
csage.rings.integer
make_integer
p4
(S'vv'
tRp5
I341
Ntp6
ag1
((lp7
(lp8
S'd'
aS'160'
p9
aa(lp10
S'n'
aS'1023'
p11
aa(lp12
S'k'
aS'341'
p13
aa(lp14
S'gr'
p15
aS'0.9999999999927526619477054024508'
p16
aa(lp17
S'ngr'
p18
aS'7.247338052294597549172190425293e-12'
p19
aa(lp20
S'pf'
p21
aS'0.000000006004775682247779826178536670203'
p22
aa(lp23
S'ngr_pf'
p24
aS'4.352276321767498856421661781315e-12'
p25
aa(lp26
S'gr_pf'
p27
aS'0.000000006000423405926034709791041730199'
p28
aa(lp29
S'rho'
p30
aS'0.9992751975174302760202130788407'
p31
aa(lp32
S'eta'
p33
aS'0.3994655292242765008614068684759'
p34
aa(lp35
S'beta'
p36
aS'None'
p37
aa(lp38
S'prec'
p39
aS'106'
p40
aatRp41
aatRp42
.