ccollections
OrderedDict
p1
((lp2
(lp3
(I160
csage.rings.integer
make_integer
p4
(S'1vv'
tRp5
I703
Ntp6
ag1
((lp7
(lp8
S'd'
aS'160'
p9
aa(lp10
S'n'
aS'2047'
p11
aa(lp12
S'k'
aS'703'
p13
aa(lp14
S'gr'
p15
aS'0.9999999999927526619477054024508'
p16
aa(lp17
S'ngr'
p18
aS'7.247338052294597549172190425293e-12'
p19
aa(lp20
S'pf'
p21
aS'0.000000003901064167326557786068973286299'
p22
aa(lp23
S'ngr_pf'
p24
aS'6.494662139428202399360685148842e-12'
p25
aa(lp26
S'gr_pf'
p27
aS'0.000000003894569505187144649659709448391'
p28
aa(lp29
S'rho'
p30
aS'0.9983351562904746922294274469466'
p31
aa(lp32
S'eta'
p33
aS'0.1038554994172085812087549324368'
p34
aa(lp35
S'beta'
p36
aS'None'
p37
aa(lp38
S'prec'
p39
aS'106'
p40
aatRp41
aatRp42
.