ccollections
OrderedDict
p1
((lp2
(lp3
(I160
csage.rings.integer
make_integer
p4
(S'vv'
tRp5
I351
Ntp6
ag1
((lp7
(lp8
S'd'
aS'160'
p9
aa(lp10
S'n'
aS'1023'
p11
aa(lp12
S'k'
aS'351'
p13
aa(lp14
S'gr'
p15
aS'0.9999999999927526619477054024508'
p16
aa(lp17
S'ngr'
p18
aS'7.247338052294597549172190425293e-12'
p19
aa(lp20
S'pf'
p21
aS'0.0000000435250841181575389644342023988'
p22
aa(lp23
S'ngr_pf'
p24
aS'5.920218386162141912805588532761e-12'
p25
aa(lp26
S'gr_pf'
p27
aS'0.00000004351916389977149031309178277811'
p28
aa(lp29
S'rho'
p30
aS'0.9998639814602060153175761269223'
p31
aa(lp32
S'eta'
p33
aS'0.1831182230711968804185513429332'
p34
aa(lp35
S'beta'
p36
aS'None'
p37
aa(lp38
S'prec'
p39
aS'106'
p40
aatRp41
aatRp42
.