ccollections
OrderedDict
p1
((lp2
(lp3
(I160
csage.rings.integer
make_integer
p4
(S'2000'
tRp5
I22528
Ntp6
ag1
((lp7
(lp8
S'd'
aS'160'
p9
aa(lp10
S'n'
aS'65536'
p11
aa(lp12
S'k'
aS'22528'
p13
aa(lp14
S'gr'
p15
aS'0.9999999999927526619477054024508'
p16
aa(lp17
S'ngr'
p18
aS'7.247338052294597549172190425293e-12'
p19
aa(lp20
S'pf'
p21
aS'1.581086538329529608909495578604e-10'
p22
aa(lp23
S'ngr_pf'
p24
aS'7.247338047132161294549925727027e-12'
p25
aa(lp26
S'gr_pf'
p27
aS'1.48928808952658868929692365025e-10'
p28
aa(lp29
S'rho'
p30
aS'0.9541622936415029222797193808543'
p31
aa(lp32
S'eta'
p33
aS'7.123217127960207461086784654441e-10'
p34
aa(lp35
S'beta'
p36
aS'None'
p37
aa(lp38
S'prec'
p39
aS'106'
p40
aatRp41
aatRp42
.