ccollections
OrderedDict
p1
((lp2
(lp3
(I176
csage.rings.integer
make_integer
p4
(S'vvv'
tRp5
I10922
Ntp6
ag1
((lp7
(lp8
S'd'
aS'176'
p9
aa(lp10
S'n'
aS'32767'
p11
aa(lp12
S'k'
aS'10922'
p13
aa(lp14
S'gr'
p15
aS'0.9999999999993072358160192929334'
p16
aa(lp17
S'ngr'
p18
aS'6.927641839807070665853987369812e-13'
p19
aa(lp20
S'pf'
p21
aS'9.814483653496069465089249461881e-13'
p22
aa(lp23
S'ngr_pf'
p24
aS'5.437238868855975614417585717346e-13'
p25
aa(lp26
S'gr_pf'
p27
aS'4.334422952165151869071727806131e-13'
p28
aa(lp29
S'rho'
p30
aS'0.4459984793067388915249896425136'
p31
aa(lp32
S'eta'
p33
aS'0.2151385717412610339035032031581'
p34
aa(lp35
S'beta'
p36
aS'None'
p37
aa(lp38
S'prec'
p39
aS'106'
p40
aatRp41
aatRp42
.