ccollections
OrderedDict
p1
((lp2
(lp3
(I176
csage.rings.integer
make_integer
p4
(S'fvv'
tRp5
I5631
Ntp6
ag1
((lp7
(lp8
S'd'
aS'176'
p9
aa(lp10
S'n'
aS'16383'
p11
aa(lp12
S'k'
aS'5631'
p13
aa(lp14
S'gr'
p15
aS'0.9999999999993072358160192929334'
p16
aa(lp17
S'ngr'
p18
aS'6.927641839807070665853987369812e-13'
p19
aa(lp20
S'pf'
p21
aS'3.178548891086487865133080523326e-11'
p22
aa(lp23
S'ngr_pf'
p24
aS'6.923237314027008535173081404492e-13'
p25
aa(lp26
S'gr_pf'
p27
aS'3.109510527630716947076078437262e-11'
p28
aa(lp29
S'rho'
p30
aS'0.9782188742371034738051783663241'
p31
aa(lp32
S'eta'
p33
aS'0.0006357900540921718944838847783626'
p34
aa(lp35
S'beta'
p36
aS'None'
p37
aa(lp38
S'prec'
p39
aS'106'
p40
aatRp41
aatRp42
.