ccollections
OrderedDict
p1
((lp2
(lp3
(I176
csage.rings.integer
make_integer
p4
(S'vv'
tRp5
I351
Ntp6
ag1
((lp7
(lp8
S'd'
aS'176'
p9
aa(lp10
S'n'
aS'1023'
p11
aa(lp12
S'k'
aS'351'
p13
aa(lp14
S'gr'
p15
aS'0.9999999999993072358160192929334'
p16
aa(lp17
S'ngr'
p18
aS'6.927641839807070665853987369812e-13'
p19
aa(lp20
S'pf'
p21
aS'0.00000001536633133547987659919691491539'
p22
aa(lp23
S'ngr_pf'
p24
aS'5.628928224122039123420334366243e-13'
p25
aa(lp26
S'gr_pf'
p27
aS'0.00000001536576844265749626052895768066'
p28
aa(lp29
S'rho'
p30
aS'0.9999633684312720421188472562016'
p31
aa(lp32
S'eta'
p33
aS'0.1874683544149851267750275021728'
p34
aa(lp35
S'beta'
p36
aS'None'
p37
aa(lp38
S'prec'
p39
aS'106'
p40
aatRp41
aatRp42
.