ccollections
OrderedDict
p1
((lp2
(lp3
(I176
csage.rings.integer
make_integer
p4
(S'2000'
tRp5
I22528
Ntp6
ag1
((lp7
(lp8
S'd'
aS'176'
p9
aa(lp10
S'n'
aS'65536'
p11
aa(lp12
S'k'
aS'22528'
p13
aa(lp14
S'gr'
p15
aS'0.9999999999993072358160192929334'
p16
aa(lp17
S'ngr'
p18
aS'6.927641839807070665853987369812e-13'
p19
aa(lp20
S'pf'
p21
aS'2.09293933597380285219401255444e-11'
p22
aa(lp23
S'ngr_pf'
p24
aS'6.92764183442757204776575187667e-13'
p25
aa(lp26
S'gr_pf'
p27
aS'1.980424197855120986823283397068e-11'
p28
aa(lp29
S'rho'
p30
aS'0.9668999396429984019129654337931'
p31
aa(lp32
S'eta'
p33
aS'7.76526665564172738132760218052e-10'
p34
aa(lp35
S'beta'
p36
aS'None'
p37
aa(lp38
S'prec'
p39
aS'106'
p40
aatRp41
aatRp42
.