ccollections
OrderedDict
p1
((lp2
(lp3
(I192
csage.rings.integer
make_integer
p4
(S'vv'
tRp5
I351
Ntp6
ag1
((lp7
(lp8
S'd'
aS'192'
p9
aa(lp10
S'n'
aS'1023'
p11
aa(lp12
S'k'
aS'351'
p13
aa(lp14
S'gr'
p15
aS'0.9999999999999335191722685384056'
p16
aa(lp17
S'ngr'
p18
aS'6.648082773146159439351803257256e-14'
p19
aa(lp20
S'pf'
p21
aS'0.000000005748351465618185468299560617823'
p22
aa(lp23
S'ngr_pf'
p24
aS'5.376734643128651371047347733025e-14'
p25
aa(lp26
S'gr_pf'
p27
aS'0.000000005748297698271762121822916140322'
p28
aa(lp29
S'rho'
p30
aS'0.999990646475471641276762178874'
p31
aa(lp32
S'eta'
p33
aS'0.1912353039816096199935553649902'
p34
aa(lp35
S'beta'
p36
aS'None'
p37
aa(lp38
S'prec'
p39
aS'106'
p40
aatRp41
aatRp42
.