ccollections
OrderedDict
p1
((lp2
(lp3
(I192
csage.rings.integer
make_integer
p4
(S'fvv'
tRp5
I5631
Ntp6
ag1
((lp7
(lp8
S'd'
aS'192'
p9
aa(lp10
S'n'
aS'16383'
p11
aa(lp12
S'k'
aS'5631'
p13
aa(lp14
S'gr'
p15
aS'0.9999999999999335191722685384056'
p16
aa(lp17
S'ngr'
p18
aS'6.648082773146159439351803257256e-14'
p19
aa(lp20
S'pf'
p21
aS'4.55501821895838902905251403568e-12'
p22
aa(lp23
S'ngr_pf'
p24
aS'6.643578840779107490025667401855e-14'
p25
aa(lp26
S'gr_pf'
p27
aS'4.489103378588099244201803983758e-12'
p28
aa(lp29
S'rho'
p30
aS'0.9854148139010115387081209479071'
p31
aa(lp32
S'eta'
p33
aS'0.0006774783829775474225291946164053'
p34
aa(lp35
S'beta'
p36
aS'None'
p37
aa(lp38
S'prec'
p39
aS'106'
p40
aatRp41
aatRp42
.