ccollections
OrderedDict
p1
((lp2
(lp3
(I192
csage.rings.integer
make_integer
p4
(S'vvv'
tRp5
I10922
Ntp6
ag1
((lp7
(lp8
S'd'
aS'192'
p9
aa(lp10
S'n'
aS'32767'
p11
aa(lp12
S'k'
aS'10922'
p13
aa(lp14
S'gr'
p15
aS'0.9999999999999335191722685384056'
p16
aa(lp17
S'ngr'
p18
aS'6.648082773146159439351803257256e-14'
p19
aa(lp20
S'pf'
p21
aS'1.003222085209783940986077288495e-13'
p22
aa(lp23
S'ngr_pf'
p24
aS'5.140753712265727609084299258299e-14'
p25
aa(lp26
S'gr_pf'
p27
aS'4.862492480908292195209534597743e-14'
p28
aa(lp29
S'rho'
p30
aS'0.4875757035202485872947169186168'
p31
aa(lp32
S'eta'
p33
aS'0.22673139193889710270884150346'
p34
aa(lp35
S'beta'
p36
aS'None'
p37
aa(lp38
S'prec'
p39
aS'106'
p40
aatRp41
aatRp42
.