ccollections
OrderedDict
p1
((lp2
(lp3
(I208
csage.rings.integer
make_integer
p4
(S'3vv'
tRp5
I1407
Ntp6
ag1
((lp7
(lp8
S'd'
aS'208'
p9
aa(lp10
S'n'
aS'4095'
p11
aa(lp12
S'k'
aS'1407'
p13
aa(lp14
S'gr'
p15
aS'0.9999999999999935990500442949147'
p16
aa(lp17
S'ngr'
p18
aS'6.400949955705085260275875145054e-15'
p19
aa(lp20
S'pf'
p21
aS'5.810716295075732702932534508263e-12'
p22
aa(lp23
S'ngr_pf'
p24
aS'6.104260794211893576742914076424e-15'
p25
aa(lp26
S'gr_pf'
p27
aS'5.804612034281697246266246655397e-12'
p28
aa(lp29
S'rho'
p30
aS'0.9989494822179866320550361079643'
p31
aa(lp32
S'eta'
p33
aS'0.04635080160699528801704204919737'
p34
aa(lp35
S'beta'
p36
aS'None'
p37
aa(lp38
S'prec'
p39
aS'106'
p40
aatRp41
aatRp42
.