ccollections
OrderedDict
p1
((lp2
(lp3
(I208
csage.rings.integer
make_integer
p4
(S'g00'
tRp5
I5632
Ntp6
ag1
((lp7
(lp8
S'd'
aS'208'
p9
aa(lp10
S'n'
aS'16384'
p11
aa(lp12
S'k'
aS'5632'
p13
aa(lp14
S'gr'
p15
aS'0.9999999999999935990500442949147'
p16
aa(lp17
S'ngr'
p18
aS'6.400949955705085260275875145054e-15'
p19
aa(lp20
S'pf'
p21
aS'6.561456225117177504593004516821e-13'
p22
aa(lp23
S'ngr_pf'
p24
aS'6.396273097549604491083871833578e-15'
p25
aa(lp26
S'gr_pf'
p27
aS'6.498510469082895032897492048867e-13'
p28
aa(lp29
S'rho'
p30
aS'0.9902517476637811800645004424225'
p31
aa(lp32
S'eta'
p33
aS'0.0007306506358969960417728565632053'
p34
aa(lp35
S'beta'
p36
aS'None'
p37
aa(lp38
S'prec'
p39
aS'106'
p40
aatRp41
aatRp42
.