ccollections
OrderedDict
p1
((lp2
(lp3
(I208
csage.rings.integer
make_integer
p4
(S'2000'
tRp5
I22528
Ntp6
ag1
((lp7
(lp8
S'd'
aS'208'
p9
aa(lp10
S'n'
aS'65536'
p11
aa(lp12
S'k'
aS'22528'
p13
aa(lp14
S'gr'
p15
aS'0.9999999999999935990500442949147'
p16
aa(lp17
S'ngr'
p18
aS'6.400949955705085260275875145054e-15'
p19
aa(lp20
S'pf'
p21
aS'3.743185821136968700841210593343e-13'
p22
aa(lp23
S'ngr_pf'
p24
aS'6.400949949932231209171010978278e-15'
p25
aa(lp26
S'gr_pf'
p27
aS'3.531946564712689645109312427291e-13'
p28
aa(lp29
S'rho'
p30
aS'0.9828997269817933225409125810995'
p31
aa(lp32
S'eta'
p33
aS'9.018745797191544663465408041661e-10'
p34
aa(lp35
S'beta'
p36
aS'None'
p37
aa(lp38
S'prec'
p39
aS'106'
p40
aatRp41
aatRp42
.