ccollections
OrderedDict
p1
((lp2
(lp3
(I208
csage.rings.integer
make_integer
p4
(S'vvv'
tRp5
I11263
Ntp6
ag1
((lp7
(lp8
S'd'
aS'208'
p9
aa(lp10
S'n'
aS'32767'
p11
aa(lp12
S'k'
aS'11263'
p13
aa(lp14
S'gr'
p15
aS'0.9999999999999935990500442949147'
p16
aa(lp17
S'ngr'
p18
aS'6.400949955705085260275875145054e-15'
p19
aa(lp20
S'pf'
p21
aS'4.463137241883427783562695811726e-13'
p22
aa(lp23
S'ngr_pf'
p24
aS'6.400910731340297745108431148307e-15'
p25
aa(lp26
S'gr_pf'
p27
aS'4.360207376087752723506018755964e-13'
p28
aa(lp29
S'rho'
p30
aS'0.9856582704397431064582378662385'
p31
aa(lp32
S'eta'
p33
aS'0.00000612789743068604842562585051007'
p34
aa(lp35
S'beta'
p36
aS'None'
p37
aa(lp38
S'prec'
p39
aS'106'
p40
aatRp41
aatRp42
.