ccollections
OrderedDict
p1
((lp2
(lp3
(I208
csage.rings.integer
make_integer
p4
(S'fvv'
tRp5
I5461
Ntp6
ag1
((lp7
(lp8
S'd'
aS'208'
p9
aa(lp10
S'n'
aS'16383'
p11
aa(lp12
S'k'
aS'5461'
p13
aa(lp14
S'gr'
p15
aS'0.9999999999999935990500442949147'
p16
aa(lp17
S'ngr'
p18
aS'6.400949955705085260275875145054e-15'
p19
aa(lp20
S'pf'
p21
aS'1.655287870359472769837783164607e-14'
p22
aa(lp23
S'ngr_pf'
p24
aS'4.586544533977919508228243241218e-15'
p25
aa(lp26
S'gr_pf'
p27
aS'1.19675265133947153549797491012e-14'
p28
aa(lp29
S'rho'
p30
aS'0.7229155957639031979656670667814'
p31
aa(lp32
S'eta'
p33
aS'0.2834587731950644737030926542382'
p34
aa(lp35
S'beta'
p36
aS'None'
p37
aa(lp38
S'prec'
p39
aS'106'
p40
aatRp41
aatRp42
.