ccollections
OrderedDict
p1
((lp2
(lp3
(I224
csage.rings.integer
make_integer
p4
(S'g00'
tRp5
I5632
Ntp6
ag1
((lp7
(lp8
S'd'
aS'224'
p9
aa(lp10
S'n'
aS'16384'
p11
aa(lp12
S'k'
aS'5632'
p13
aa(lp14
S'gr'
p15
aS'0.9999999999999993819541247775379'
p16
aa(lp17
S'ngr'
p18
aS'6.180458752224621319631741659908e-16'
p19
aa(lp20
S'pf'
p21
aS'9.628851155420126995552007510802e-14'
p22
aa(lp23
S'ngr_pf'
p24
aS'6.175703268860051430067132592334e-16'
p25
aa(lp26
S'gr_pf'
p27
aS'9.568787226640636931048424189542e-14'
p28
aa(lp29
S'rho'
p30
aS'0.9935862511849259211774814266545'
p31
aa(lp32
S'eta'
p33
aS'0.0007694385732868421960308574377859'
p34
aa(lp35
S'beta'
p36
aS'None'
p37
aa(lp38
S'prec'
p39
aS'106'
p40
aatRp41
aatRp42
.