ccollections
OrderedDict
p1
((lp2
(lp3
(I224
csage.rings.integer
make_integer
p4
(S'2000'
tRp5
I22528
Ntp6
ag1
((lp7
(lp8
S'd'
aS'224'
p9
aa(lp10
S'n'
aS'65536'
p11
aa(lp12
S'k'
aS'22528'
p13
aa(lp14
S'gr'
p15
aS'0.9999999999999993819541247775379'
p16
aa(lp17
S'ngr'
p18
aS'6.180458752224621319631741659908e-16'
p19
aa(lp20
S'pf'
p21
aS'5.049175494911089981793448694281e-14'
p22
aa(lp23
S'ngr_pf'
p24
aS'6.18045874627241403515947792393e-16'
p25
aa(lp26
S'gr_pf'
p27
aS'4.739826861350035917755561689761e-14'
p28
aa(lp29
S'rho'
p30
aS'0.9877594693381097370323030746578'
p31
aa(lp32
S'eta'
p33
aS'9.630688470058634800622854997679e-10'
p34
aa(lp35
S'beta'
p36
aS'None'
p37
aa(lp38
S'prec'
p39
aS'106'
p40
aatRp41
aatRp42
.