ccollections
OrderedDict
p1
((lp2
(lp3
(I240
csage.rings.integer
make_integer
p4
(S'v'
tRp5
I10
Ntp6
ag1
((lp7
(lp8
S'd'
aS'240'
p9
aa(lp10
S'n'
aS'31'
p11
aa(lp12
S'k'
aS'10'
p13
aa(lp14
S'gr'
p15
aS'0.9999999999999999401782698311913'
p16
aa(lp17
S'ngr'
p18
aS'5.982173016880868294815034310378e-17'
p19
aa(lp20
S'pf'
p21
aS'0.03907124172194910893072305761672'
p22
aa(lp23
S'ngr_pf'
p24
aS'3.256637478261102571809986370694e-17'
p25
aa(lp26
S'gr_pf'
p27
aS'0.03907124172194919617994011396148'
p28
aa(lp29
S'rho'
p30
aS'0.9999999999999991664873357655238'
p31
aa(lp32
S'eta'
p33
aS'0.4556096139193366418158083161188'
p34
aa(lp35
S'beta'
p36
aS'None'
p37
aa(lp38
S'prec'
p39
aS'106'
p40
aatRp41
aatRp42
.