ccollections
OrderedDict
p1
((lp2
(lp3
(I256
csage.rings.integer
make_integer
p4
(S'20'
tRp5
I22
Ntp6
ag1
((lp7
(lp8
S'd'
aS'256'
p9
aa(lp10
S'n'
aS'64'
p11
aa(lp12
S'k'
aS'22'
p13
aa(lp14
S'gr'
p15
aS'0.9999999999999999941973739949752'
p16
aa(lp17
S'ngr'
p18
aS'5.802626005024810540475846008358e-18'
p19
aa(lp20
S'pf'
p21
aS'0.01137191229505960039501546799437'
p22
aa(lp23
S'ngr_pf'
p24
aS'3.713267658723460369537435760297e-18'
p25
aa(lp26
S'gr_pf'
p27
aS'0.01137191229505965375647007103249'
p28
aa(lp29
S'rho'
p30
aS'0.9999999999999996734702517590953'
p31
aa(lp32
S'eta'
p33
aS'0.3600711719990329810255181059878'
p34
aa(lp35
S'beta'
p36
aS'None'
p37
aa(lp38
S'prec'
p39
aS'106'
p40
aatRp41
aatRp42
.