ccollections
OrderedDict
p1
((lp2
(lp3
(I256
csage.rings.integer
make_integer
p4
(S'1000'
tRp5
I11264
Ntp6
ag1
((lp7
(lp8
S'd'
aS'256'
p9
aa(lp10
S'n'
aS'32768'
p11
aa(lp12
S'k'
aS'11264'
p13
aa(lp14
S'gr'
p15
aS'0.9999999999999999941973739949752'
p16
aa(lp17
S'ngr'
p18
aS'5.802626005024810540475846008358e-18'
p19
aa(lp20
S'pf'
p21
aS'1.203430572392220823748660338315e-15'
p22
aa(lp23
S'ngr_pf'
p24
aS'5.802585431403761199886539588628e-18'
p25
aa(lp26
S'gr_pf'
p27
aS'1.190351068317486252048088128704e-15'
p28
aa(lp29
S'rho'
p30
aS'0.9951782964763233647749159296383'
p31
aa(lp32
S'eta'
p33
aS'0.000006992286081199387398668551291754'
p34
aa(lp35
S'beta'
p36
aS'None'
p37
aa(lp38
S'prec'
p39
aS'106'
p40
aatRp41
aatRp42
.