ccollections
OrderedDict
p1
((lp2
(lp3
(I256
csage.rings.integer
make_integer
p4
(S'v'
tRp5
I10
Ntp6
ag1
((lp7
(lp8
S'd'
aS'256'
p9
aa(lp10
S'n'
aS'31'
p11
aa(lp12
S'k'
aS'10'
p13
aa(lp14
S'gr'
p15
aS'0.9999999999999999941973739949752'
p16
aa(lp17
S'ngr'
p18
aS'5.802626005024810540475846008358e-18'
p19
aa(lp20
S'pf'
p21
aS'0.03883868578895888996844131416173'
p22
aa(lp23
S'ngr_pf'
p24
aS'3.155121859983791751113396554542e-18'
p25
aa(lp26
S'gr_pf'
p27
aS'0.03883868578895901252014055126252'
p28
aa(lp29
S'rho'
p30
aS'0.9999999999999999187634237386906'
p31
aa(lp32
S'eta'
p33
aS'0.4562596560158108519522573645432'
p34
aa(lp35
S'beta'
p36
aS'None'
p37
aa(lp38
S'prec'
p39
aS'106'
p40
aatRp41
aatRp42
.