ccollections
OrderedDict
p1
((lp2
(lp3
(I256
csage.rings.integer
make_integer
p4
(S'g0'
tRp5
I176
Ntp6
ag1
((lp7
(lp8
S'd'
aS'256'
p9
aa(lp10
S'n'
aS'512'
p11
aa(lp12
S'k'
aS'176'
p13
aa(lp14
S'gr'
p15
aS'0.9999999999999999941973739949752'
p16
aa(lp17
S'ngr'
p18
aS'5.802626005024810540475846008358e-18'
p19
aa(lp20
S'pf'
p21
aS'0.00000004362849781345870728870619455081'
p22
aa(lp23
S'ngr_pf'
p24
aS'4.124730187099549520410826236606e-18'
p25
aa(lp26
S'gr_pf'
p27
aS'0.0000000436284978093340979213833603713'
p28
aa(lp29
S'rho'
p30
aS'0.9999999999054578911991066776633'
p31
aa(lp32
S'eta'
p33
aS'0.2891614618057892166208689575524'
p34
aa(lp35
S'beta'
p36
aS'None'
p37
aa(lp38
S'prec'
p39
aS'106'
p40
aatRp41
aatRp42
.