ccollections
OrderedDict
p1
((lp2
(lp3
(I272
csage.rings.integer
make_integer
p4
(S'fv'
tRp5
I170
Ntp6
ag1
((lp7
(lp8
S'd'
aS'272'
p9
aa(lp10
S'n'
aS'511'
p11
aa(lp12
S'k'
aS'170'
p13
aa(lp14
S'gr'
p15
aS'0.9999999999999999994360936064179'
p16
aa(lp17
S'ngr'
p18
aS'5.639063935820894231389613869261e-19'
p19
aa(lp20
S'pf'
p21
aS'0.000000004635027923070039998592814253398'
p22
aa(lp23
S'ngr_pf'
p24
aS'3.078837005571818549946632818053e-19'
p25
aa(lp26
S'gr_pf'
p27
aS'0.000000004635027922762168384989339687571'
p28
aa(lp29
S'rho'
p30
aS'0.999999999933574574810057855544'
p31
aa(lp32
S'eta'
p33
aS'0.4540162976315636190353568790323'
p34
aa(lp35
S'beta'
p36
aS'None'
p37
aa(lp38
S'prec'
p39
aS'106'
p40
aatRp41
aatRp42
.