ccollections
OrderedDict
p1
((lp2
(lp3
(I304
csage.rings.integer
make_integer
p4
(S'fv'
tRp5
I170
Ntp6
ag1
((lp7
(lp8
S'd'
aS'304'
p9
aa(lp10
S'n'
aS'511'
p11
aa(lp12
S'k'
aS'170'
p13
aa(lp14
S'gr'
p15
aS'0.9999999999999999999946485727371'
p16
aa(lp17
S'ngr'
p18
aS'5.351427262899584047492120604863e-21'
p19
aa(lp20
S'pf'
p21
aS'0.000000002080046571307734579571956005416'
p22
aa(lp23
S'ngr_pf'
p24
aS'2.901250519927258743519415957225e-21'
p25
aa(lp26
S'gr_pf'
p27
aS'0.000000002080046571304842449032724210366'
p28
aa(lp29
S'rho'
p30
aS'0.9999999999986051992489268018794'
p31
aa(lp32
S'eta'
p33
aS'0.4578548156599136478625654472739'
p34
aa(lp35
S'beta'
p36
aS'None'
p37
aa(lp38
S'prec'
p39
aS'106'
p40
aatRp41
aatRp42
.