ccollections
OrderedDict
p1
((lp2
(lp3
(I336
csage.rings.integer
make_integer
p4
(S'1v'
tRp5
I21
Ntp6
ag1
((lp7
(lp8
S'd'
aS'336'
p9
aa(lp10
S'n'
aS'63'
p11
aa(lp12
S'k'
aS'21'
p13
aa(lp14
S'gr'
p15
aS'0.9999999999999999999999489411538'
p16
aa(lp17
S'ngr'
p18
aS'5.10588461933117721769204421426e-23'
p19
aa(lp20
S'pf'
p21
aS'0.007189010266354027354618720894697'
p22
aa(lp23
S'ngr_pf'
p24
aS'2.908462836720773649880027518583e-23'
p25
aa(lp26
S'gr_pf'
p27
aS'0.007189010266354062752260234968634'
p28
aa(lp29
S'rho'
p30
aS'0.99999999999999999999595429311'
p31
aa(lp32
S'eta'
p33
aS'0.4303704345943965179731235450016'
p34
aa(lp35
S'beta'
p36
aS'None'
p37
aa(lp38
S'prec'
p39
aS'106'
p40
aatRp41
aatRp42
.