ccollections
OrderedDict
p1
((lp2
(lp3
(I352
csage.rings.integer
make_integer
p4
(S'3vv'
tRp5
I1407
Ntp6
ag1
((lp7
(lp8
S'd'
aS'352'
p9
aa(lp10
S'n'
aS'4095'
p11
aa(lp12
S'k'
aS'1407'
p13
aa(lp14
S'gr'
p15
aS'0.9999999999999999999999950041101'
p16
aa(lp17
S'ngr'
p18
aS'4.995889873396021108926375445863e-24'
p19
aa(lp20
S'pf'
p21
aS'8.73924686073567518235191320314e-18'
p22
aa(lp23
S'ngr_pf'
p24
aS'4.715076035694985729102636786078e-24'
p25
aa(lp26
S'gr_pf'
p27
aS'8.739242145666289334972759831001e-18'
p28
aa(lp29
S'rho'
p30
aS'0.9999994604711240187958570973424'
p31
aa(lp32
S'eta'
p33
aS'0.05620897273905449839126305542505'
p34
aa(lp35
S'beta'
p36
aS'None'
p37
aa(lp38
S'prec'
p39
aS'106'
p40
aatRp41
aatRp42
.