ccollections
OrderedDict
p1
((lp2
(lp3
(I352
csage.rings.integer
make_integer
p4
(S'g0'
tRp5
I176
Ntp6
ag1
((lp7
(lp8
S'd'
aS'352'
p9
aa(lp10
S'n'
aS'512'
p11
aa(lp12
S'k'
aS'176'
p13
aa(lp14
S'gr'
p15
aS'0.9999999999999999999999950041101'
p16
aa(lp17
S'ngr'
p18
aS'4.995889873396021108926375445863e-24'
p19
aa(lp20
S'pf'
p21
aS'0.000000005687655393645815430366505204997'
p22
aa(lp23
S'ngr_pf'
p24
aS'3.506793710953458113236625369713e-24'
p25
aa(lp26
S'gr_pf'
p27
aS'0.000000005687655393645856398651725919794'
p28
aa(lp29
S'rho'
p30
aS'0.9999999999999993834377316756552'
p31
aa(lp32
S'eta'
p33
aS'0.2980642488482898672833782053988'
p34
aa(lp35
S'beta'
p36
aS'None'
p37
aa(lp38
S'prec'
p39
aS'106'
p40
aatRp41
aatRp42
.