ccollections
OrderedDict
p1
((lp2
(lp3
(I368
csage.rings.integer
make_integer
p4
(S'fv'
tRp5
I170
Ntp6
ag1
((lp7
(lp8
S'd'
aS'368'
p9
aa(lp10
S'n'
aS'511'
p11
aa(lp12
S'k'
aS'170'
p13
aa(lp14
S'gr'
p15
aS'0.9999999999999999999999995106824'
p16
aa(lp17
S'ngr'
p18
aS'4.893175555149488483000032161447e-25'
p19
aa(lp20
S'pf'
p21
aS'5.501442373251892280228245368637e-10'
p22
aa(lp23
S'ngr_pf'
p24
aS'2.624749646998096129041561295947e-25'
p25
aa(lp26
S'gr_pf'
p27
aS'5.50144237325193079845904018522e-10'
p28
aa(lp29
S'rho'
p30
aS'0.9999999999999995228979113260053'
p31
aa(lp32
S'eta'
p33
aS'0.4635897246245625514431276838645'
p34
aa(lp35
S'beta'
p36
aS'None'
p37
aa(lp38
S'prec'
p39
aS'106'
p40
aatRp41
aatRp42
.