ccollections
OrderedDict
p1
((lp2
(lp3
(I384
csage.rings.integer
make_integer
p4
(S'80'
tRp5
I88
Ntp6
ag1
((lp7
(lp8
S'd'
aS'384'
p9
aa(lp10
S'n'
aS'256'
p11
aa(lp12
S'k'
aS'88'
p13
aa(lp14
S'gr'
p15
aS'0.9999999999999999999999999520302'
p16
aa(lp17
S'ngr'
p18
aS'4.796982925563713961619748648112e-26'
p19
aa(lp20
S'pf'
p21
aS'0.000002859801194418821230708500579891'
p22
aa(lp23
S'ngr_pf'
p24
aS'3.039975515037841402077023428989e-26'
p25
aa(lp26
S'gr_pf'
p27
aS'0.000002859801194418831912983007421135'
p28
aa(lp29
S'rho'
p30
aS'0.9999999999999999999893699760635'
p31
aa(lp32
S'eta'
p33
aS'0.3662734343210944639427729977252'
p34
aa(lp35
S'beta'
p36
aS'None'
p37
aa(lp38
S'prec'
p39
aS'106'
p40
aatRp41
aa(lp42
(I384
g5
I88
F0.73303828583761832
tp43
ag1
((lp44
(lp45
S'd'
aS'384'
p46
aa(lp47
S'n'
aS'256'
p48
aa(lp49
S'k'
aS'88'
p50
aa(lp51
g15
aS'0.5164977057304266240377214407563'
p52
aa(lp53
g18
aS'0.4835022942695733759622785592437'
p54
aa(lp55
g21
aS'0.759453628586852237996671573438'
p56
aa(lp57
g24
aS'0.4060799265414733876409579875905'
p58
aa(lp59
g27
aS'0.002054912337632924721048715148288'
p60
aa(lp61
g30
aS'0.4652999060692044770103591791664'
p62
aa(lp63
g33
aS'0.1601282323697386224490962158553'
p64
aa(lp65
g36
aS'0.7330382858376183197179898343165'
p66
aa(lp67
g39
aS'106'
p68
aatRp69
aa(lp70
(I384
g5
I88
F1.0471975511965976
tp71
ag1
((lp72
(lp73
S'd'
aS'384'
p74
aa(lp75
S'n'
aS'256'
p76
aa(lp77
S'k'
aS'88'
p78
aa(lp79
g15
aS'0.9999999989051496163891002655582'
p80
aa(lp81
g18
aS'0.000000001094850383610899734441771684234'
p82
aa(lp83
g21
aS'0.0000708011156546641952278178422017'
p84
aa(lp85
g24
aS'6.995355337625097787596152092289e-10'
p86
aa(lp87
g27
aS'0.3066880122072915346699842430077'
p88
aa(lp89
g30
aS'0.9999901197102998414943947189322'
p90
aa(lp91
g33
aS'0.3610674625190444297572190572936'
p92
aa(lp93
g36
aS'1.047197551196597631317786181171'
p94
aa(lp95
g39
aS'106'
p96
aatRp97
aa(lp98
(I384
g5
I88
F1.3613568165555769
tp99
ag1
((lp100
(lp101
S'd'
aS'384'
p102
aa(lp103
S'n'
aS'256'
p104
aa(lp105
S'k'
aS'88'
p106
aa(lp107
g15
aS'0.9999999999999999999999703319664'
p108
aa(lp109
g18
aS'2.966803361307191537878025048497e-23'
p110
aa(lp111
g21
aS'0.00001725341050147248853597128210578'
p112
aa(lp113
g24
aS'1.881236792341637632604133149741e-23'
p114
aa(lp115
g27
aS'0.00001725341050147260459228092998991'
p116
aa(lp117
g30
aS'0.9999999999999999989096435210992'
p118
aa(lp119
g33
aS'0.3659044556587150073758021507008'
p120
aa(lp121
g36
aS'1.361356816555576942917582528025'
p122
aa(lp123
g39
aS'106'
p124
aatRp125
aatRp126
.