ccollections
OrderedDict
p1
((lp2
(lp3
(I400
csage.rings.integer
make_integer
p4
(S'vv'
tRp5
I351
Ntp6
ag1
((lp7
(lp8
S'd'
aS'400'
p9
aa(lp10
S'n'
aS'1023'
p11
aa(lp12
S'k'
aS'351'
p13
aa(lp14
S'gr'
p15
aS'0.9999999999999999999999999952933'
p16
aa(lp17
S'ngr'
p18
aS'4.706659390606728200077805817472e-27'
p19
aa(lp20
S'pf'
p21
aS'6.078256259741987772689522113121e-13'
p22
aa(lp23
S'ngr_pf'
p24
aS'3.692333577501454755369312558283e-27'
p25
aa(lp26
S'gr_pf'
p27
aS'6.07825625974195404386052675862e-13'
p28
aa(lp29
S'rho'
p30
aS'0.9999999999999939253407231991427'
p31
aa(lp32
S'eta'
p33
aS'0.2155086503879173353900663387122'
p34
aa(lp35
S'beta'
p36
aS'None'
p37
aa(lp38
S'prec'
p39
aS'106'
p40
aatRp41
aatRp42
.