ccollections
OrderedDict
p1
((lp2
(lp3
(I416
csage.rings.integer
make_integer
p4
(S'g00'
tRp5
I5632
Ntp6
ag1
((lp7
(lp8
S'd'
aS'416'
p9
aa(lp10
S'n'
aS'16384'
p11
aa(lp12
S'k'
aS'5632'
p13
aa(lp14
S'gr'
p15
aS'0.9999999999999999999999999995378'
p16
aa(lp17
S'ngr'
p18
aS'4.621640147787580243413388331693e-28'
p19
aa(lp20
S'pf'
p21
aS'1.107791157218778141920156567185e-33'
p22
aa(lp23
S'ngr_pf'
p24
aS'4.616419399710267308588385877842e-28'
p25
aa(lp26
S'gr_pf'
p27
aS'2.164773935936791440666844114833e-23'
p28
aa(lp29
S'rho'
p30
aS'-416721.8966965448252120170694858'
p31
aa(lp32
S'eta'
p33
aS'0.001129631020669610725271416837958'
p34
aa(lp35
S'beta'
p36
aS'None'
p37
aa(lp38
S'prec'
p39
aS'106'
p40
aatRp41
aatRp42
.