ccollections
OrderedDict
p1
((lp2
(lp3
(I432
csage.rings.integer
make_integer
p4
(S'g0'
tRp5
I176
Ntp6
ag1
((lp7
(lp8
S'd'
aS'432'
p9
aa(lp10
S'n'
aS'512'
p11
aa(lp12
S'k'
aS'176'
p13
aa(lp14
S'gr'
p15
aS'0.9999999999999999999999999999546'
p16
aa(lp17
S'ngr'
p18
aS'4.541433567936042467999778927548e-29'
p19
aa(lp20
S'pf'
p21
aS'0.000000001674119833844909832660417939381'
p22
aa(lp23
S'ngr_pf'
p24
aS'3.167155150856641857551104938484e-29'
p25
aa(lp26
S'gr_pf'
p27
aS'0.000000001674119833844922711343726125153'
p28
aa(lp29
S'rho'
p30
aS'0.9999999999999999999810816699807'
p31
aa(lp32
S'eta'
p33
aS'0.3026089441849906042003207913165'
p34
aa(lp35
S'beta'
p36
aS'None'
p37
aa(lp38
S'prec'
p39
aS'106'
p40
aatRp41
aatRp42
.